(dp1
S'session'
p2
(dp3
S'csrf_token'
p4
S'81c9b57c17846ed8ba5c50d35284b24e4d9aacc1'
p5
sS'_accessed_time'
p6
F1487387950.991492
sS'login'
p7
cwerkzeug.datastructures
ImmutableMultiDict
p8
((lp9
(S'csrf_token'
p10
VIjgxYzliNTdjMTc4NDZlZDhiYTVjNTBkMzUyODRiMjRlNGQ5YWFjYzEi.C4lObg.jXhECl8cs08dBeKwovdVknRh570
p11
tp12
a(S'login'
p13
Vsudo
p14
tp15
atRp16
sS'_creation_time'
p17
F1487387814.210166
ss.