(dp1
S'session'
p2
(dp3
S'last'
p4
I-1
sS'csrf_token'
p5
S'81c9b57c17846ed8ba5c50d35284b24e4d9aacc1'
p6
sS'_accessed_time'
p7
F1487392668.4934249
sS'login'
p8
Vkek
p9
sS'_creation_time'
p10
F1487387814.210166
ss.